; Function Attrs: nounwind uwtable
define internal void @ResOwnerReleaseWaitEventSet(i64 noundef %0) #0 {
FreeWaitEventSet.exit:
  %1 = inttoptr i64 %0 to ptr
  store ptr null, ptr %1, align 8
  %2 = getelementptr inbounds nuw i8, ptr %1, i64 40
  %3 = load i32, ptr %2, align 8
  %4 = tail call i32 @close(i32 noundef %3) #14
  tail call void @ReleaseExternalFD() #14
  tail call void @pfree(ptr noundef nonnull %1) #14
  ret void
}